; Function Attrs: mustprogress uwtable
define noundef zeroext i1 @_ZN6google8protobuf2io19OstreamOutputStream26CopyingOstreamOutputStream5WriteEPKvi(ptr nocapture noundef nonnull readonly align 8 dereferenceable(16) %this, ptr noundef %buffer, i32 noundef %size) unnamed_addr #3 align 2 {
entry:
  %output_ = getelementptr inbounds i8, ptr %this, i64 8
  %0 = load ptr, ptr %output_, align 8
  %conv = sext i32 %size to i64
  %call = tail call noundef nonnull align 8 dereferenceable(8) ptr @_ZNSo5writeEPKcl(ptr noundef nonnull align 8 dereferenceable(8) %0, ptr noundef %buffer, i64 noundef %conv)
  %1 = load ptr, ptr %output_, align 8
  %vtable = load ptr, ptr %1, align 8
  %vbase.offset.ptr = getelementptr i8, ptr %vtable, i64 -24
  %vbase.offset = load i64, ptr %vbase.offset.ptr, align 8
  %add.ptr = getelementptr inbounds i8, ptr %1, i64 %vbase.offset
  %call3 = tail call noundef zeroext i1 @_ZNKSt9basic_iosIcSt11char_traitsIcEE4goodEv(ptr noundef nonnull align 8 dereferenceable(264) %add.ptr)
  ret i1 %call3
}